target datalayout = "e-m:e-p270:32:32-p271:32:32-p272:64:64-i64:64-i128:128-f80:128-n8:16:32:64-S128"
target triple = "x86_64-pc-linux-gnu"

%struct.Gpr_t = type { ptr, ptr, ptr, ptr, ptr, ptr, ptr, ptr, ptr, ptr, ptr, i32, ptr, ptr, ptr, i32, i32, ptr, i32, ptr, i64, [1 x %struct.__jmp_buf_tag] }
%struct.__jmp_buf_tag = type { [8 x i64], i32, %struct.__sigset_t }
%struct.__sigset_t = type { [16 x i64] }
%struct.gvprbinding = type { ptr, ptr }

@.str.2 = private unnamed_addr constant [31 x i8] c"call(\22%s\22) failed: no bindings\00", align 1
@.str.3 = private unnamed_addr constant [30 x i8] c"NULL function name for call()\00", align 1
@.str.4 = private unnamed_addr constant [30 x i8] c"No binding for \22%s\22 in call()\00", align 1

; Function Attrs: inlinehint nounwind uwtable
define available_externally ptr @bsearch(ptr noundef nonnull %0, ptr noundef nonnull %1, i64 noundef %2, i64 noundef %3, ptr noundef nonnull %4) #5 {
  %6 = alloca ptr, align 8
  %7 = alloca ptr, align 8
  %8 = alloca ptr, align 8
  %9 = alloca i64, align 8
  %10 = alloca i64, align 8
  %11 = alloca ptr, align 8
  %12 = alloca i64, align 8
  %13 = alloca i64, align 8
  %14 = alloca i64, align 8
  %15 = alloca ptr, align 8
  %16 = alloca i32, align 4
  %17 = alloca i32, align 4
  store ptr %0, ptr %7, align 8, !tbaa !7
  store ptr %1, ptr %8, align 8, !tbaa !7
  store i64 %2, ptr %9, align 8, !tbaa !43
  store i64 %3, ptr %10, align 8, !tbaa !43
  store ptr %4, ptr %11, align 8, !tbaa !7
  call void @llvm.lifetime.start.p0(i64 8, ptr %12) #10
  call void @llvm.lifetime.start.p0(i64 8, ptr %13) #10
  call void @llvm.lifetime.start.p0(i64 8, ptr %14) #10
  call void @llvm.lifetime.start.p0(i64 8, ptr %15) #10
  call void @llvm.lifetime.start.p0(i64 4, ptr %16) #10
  store i64 0, ptr %12, align 8, !tbaa !43
  %18 = load i64, ptr %9, align 8, !tbaa !43
  store i64 %18, ptr %13, align 8, !tbaa !43
  br label %19

19:                                               ; preds = %50, %5
  %20 = load i64, ptr %12, align 8, !tbaa !43
  %21 = load i64, ptr %13, align 8, !tbaa !43
  %22 = icmp ult i64 %20, %21
  br i1 %22, label %23, label %51

23:                                               ; preds = %19
  %24 = load i64, ptr %12, align 8, !tbaa !43
  %25 = load i64, ptr %13, align 8, !tbaa !43
  %26 = add i64 %24, %25
  %27 = udiv i64 %26, 2
  store i64 %27, ptr %14, align 8, !tbaa !43
  %28 = load ptr, ptr %8, align 8, !tbaa !7
  %29 = load i64, ptr %14, align 8, !tbaa !43
  %30 = load i64, ptr %10, align 8, !tbaa !43
  %31 = mul i64 %29, %30
  %32 = getelementptr inbounds nuw i8, ptr %28, i64 %31
  store ptr %32, ptr %15, align 8, !tbaa !7
  %33 = load ptr, ptr %11, align 8, !tbaa !7
  %34 = load ptr, ptr %7, align 8, !tbaa !7
  %35 = load ptr, ptr %15, align 8, !tbaa !7
  %36 = call i32 %33(ptr noundef %34, ptr noundef %35)
  store i32 %36, ptr %16, align 4, !tbaa !22
  %37 = load i32, ptr %16, align 4, !tbaa !22
  %38 = icmp slt i32 %37, 0
  br i1 %38, label %39, label %41

39:                                               ; preds = %23
  %40 = load i64, ptr %14, align 8, !tbaa !43
  store i64 %40, ptr %13, align 8, !tbaa !43
  br label %50

41:                                               ; preds = %23
  %42 = load i32, ptr %16, align 4, !tbaa !22
  %43 = icmp sgt i32 %42, 0
  br i1 %43, label %44, label %47

44:                                               ; preds = %41
  %45 = load i64, ptr %14, align 8, !tbaa !43
  %46 = add i64 %45, 1
  store i64 %46, ptr %12, align 8, !tbaa !43
  br label %49

47:                                               ; preds = %41
  %48 = load ptr, ptr %15, align 8, !tbaa !7
  store ptr %48, ptr %6, align 8
  store i32 1, ptr %17, align 4
  br label %52

49:                                               ; preds = %44
  br label %50

50:                                               ; preds = %49, %39
  br label %19, !llvm.loop !44

51:                                               ; preds = %19
  store ptr null, ptr %6, align 8
  store i32 1, ptr %17, align 4
  br label %52

52:                                               ; preds = %51, %47
  call void @llvm.lifetime.end.p0(i64 4, ptr %16) #10
  call void @llvm.lifetime.end.p0(i64 8, ptr %15) #10
  call void @llvm.lifetime.end.p0(i64 8, ptr %14) #10
  call void @llvm.lifetime.end.p0(i64 8, ptr %13) #10
  call void @llvm.lifetime.end.p0(i64 8, ptr %12) #10
  %53 = load ptr, ptr %6, align 8
  ret ptr %53
}

; Function Attrs: nounwind uwtable
define ptr @findBinding(ptr noundef %0, ptr noundef %1) #0 {
  %3 = alloca ptr, align 8
  %4 = alloca ptr, align 8
  %5 = alloca ptr, align 8
  %6 = alloca %struct.gvprbinding, align 8
  %7 = alloca ptr, align 8
  %8 = alloca i32, align 4
  store ptr %0, ptr %4, align 8, !tbaa !7
  store ptr %1, ptr %5, align 8, !tbaa !38
  call void @llvm.lifetime.start.p0(i64 16, ptr %6) #10
  call void @llvm.lifetime.start.p0(i64 8, ptr %7) #10
  %9 = load ptr, ptr %4, align 8, !tbaa !7
  %10 = getelementptr inbounds nuw %struct.Gpr_t, ptr %9, i32 0, i32 19
  %11 = load ptr, ptr %10, align 8, !tbaa !39
  %12 = icmp ne ptr %11, null
  br i1 %12, label %15, label %13

13:                                               ; preds = %2
  %14 = load ptr, ptr %5, align 8, !tbaa !38
  call void (i32, ptr, ...) @error(i32 noundef 2, ptr noundef @.str.2, ptr noundef %14)
  store ptr null, ptr %3, align 8
  store i32 1, ptr %8, align 4
  br label %35

15:                                               ; preds = %2
  %16 = load ptr, ptr %5, align 8, !tbaa !38
  %17 = icmp ne ptr %16, null
  br i1 %17, label %19, label %18

18:                                               ; preds = %15
  call void (i32, ptr, ...) @error(i32 noundef 2, ptr noundef @.str.3)
  store ptr null, ptr %3, align 8
  store i32 1, ptr %8, align 4
  br label %35

19:                                               ; preds = %15
  %20 = load ptr, ptr %5, align 8, !tbaa !38
  %21 = getelementptr inbounds nuw %struct.gvprbinding, ptr %6, i32 0, i32 0
  store ptr %20, ptr %21, align 8, !tbaa !40
  %22 = load ptr, ptr %4, align 8, !tbaa !7
  %23 = getelementptr inbounds nuw %struct.Gpr_t, ptr %22, i32 0, i32 19
  %24 = load ptr, ptr %23, align 8, !tbaa !39
  %25 = load ptr, ptr %4, align 8, !tbaa !7
  %26 = getelementptr inbounds nuw %struct.Gpr_t, ptr %25, i32 0, i32 20
  %27 = load i64, ptr %26, align 8, !tbaa !42
  %28 = call ptr @bsearch(ptr noundef %6, ptr noundef %24, i64 noundef %27, i64 noundef 16, ptr noundef @bindingcmpf)
  store ptr %28, ptr %7, align 8, !tbaa !7
  %29 = load ptr, ptr %7, align 8, !tbaa !7
  %30 = icmp ne ptr %29, null
  br i1 %30, label %33, label %31

31:                                               ; preds = %19
  %32 = load ptr, ptr %5, align 8, !tbaa !38
  call void (i32, ptr, ...) @error(i32 noundef 2, ptr noundef @.str.4, ptr noundef %32)
  br label %33

33:                                               ; preds = %31, %19
  %34 = load ptr, ptr %7, align 8, !tbaa !7
  store ptr %34, ptr %3, align 8
  store i32 1, ptr %8, align 4
  br label %35

35:                                               ; preds = %33, %18, %13
  call void @llvm.lifetime.end.p0(i64 8, ptr %7) #10
  call void @llvm.lifetime.end.p0(i64 16, ptr %6) #10
  %36 = load ptr, ptr %3, align 8
  ret ptr %36
}