; Function Attrs: nounwind uwtable
define ptr @findBinding(ptr noundef readonly captures(none) %0, ptr noundef %1) local_unnamed_addr #3 {
  %3 = getelementptr inbounds nuw i8, ptr %0, i64 144
  %4 = load ptr, ptr %3, align 8, !tbaa !31
  %.not = icmp eq ptr %4, null
  br i1 %.not, label %5, label %6

5:                                                ; preds = %2
  tail call void (i32, ptr, ...) @error(i32 noundef 2, ptr noundef nonnull @.str.2, ptr noundef %1) #16
  br label %bsearch.exit

6:                                                ; preds = %2
  %.not11 = icmp eq ptr %1, null
  br i1 %.not11, label %7, label %8

7:                                                ; preds = %6
  tail call void (i32, ptr, ...) @error(i32 noundef 2, ptr noundef nonnull @.str.3) #16
  br label %bsearch.exit

8:                                                ; preds = %6
  %9 = getelementptr inbounds nuw i8, ptr %0, i64 152
  %10 = load i64, ptr %9, align 8, !tbaa !32
  %.not24.i = icmp eq i64 %10, 0
  br i1 %.not24.i, label %.loopexit, label %.lr.ph.i

.lr.ph.i:                                         ; preds = %8, %21
  %.01621.i = phi i64 [ %.1.i, %21 ], [ 0, %8 ]
  %.01720.i = phi i64 [ %.118.i, %21 ], [ %10, %8 ]
  %11 = add i64 %.01720.i, %.01621.i
  %12 = lshr i64 %11, 1
  %13 = shl i64 %12, 4
  %14 = getelementptr inbounds nuw i8, ptr %4, i64 %13
  %15 = load ptr, ptr %14, align 8, !tbaa !33
  %16 = tail call i32 @strcmp(ptr noundef nonnull dereferenceable(1) %1, ptr noundef nonnull dereferenceable(1) %15) #18
  %17 = icmp slt i32 %16, 0
  br i1 %17, label %21, label %18

18:                                               ; preds = %.lr.ph.i
  %.not.i = icmp eq i32 %16, 0
  br i1 %.not.i, label %bsearch.exit.loopexit, label %19

19:                                               ; preds = %18
  %20 = add nuw i64 %12, 1
  br label %21

21:                                               ; preds = %19, %.lr.ph.i
  %.118.i = phi i64 [ %.01720.i, %19 ], [ %12, %.lr.ph.i ]
  %.1.i = phi i64 [ %20, %19 ], [ %.01621.i, %.lr.ph.i ]
  %22 = icmp ult i64 %.1.i, %.118.i
  br i1 %22, label %.lr.ph.i, label %.loopexit, !llvm.loop !35

.loopexit:                                        ; preds = %21, %8
  tail call void (i32, ptr, ...) @error(i32 noundef 2, ptr noundef nonnull @.str.4, ptr noundef nonnull %1) #16
  br label %bsearch.exit

bsearch.exit.loopexit:                            ; preds = %18
  %23 = getelementptr inbounds nuw i8, ptr %4, i64 %13
  br label %bsearch.exit

bsearch.exit:                                     ; preds = %bsearch.exit.loopexit, %.loopexit, %7, %5
  %.0 = phi ptr [ null, %7 ], [ null, %5 ], [ null, %.loopexit ], [ %23, %bsearch.exit.loopexit ]
  ret ptr %.0
}